; Function Attrs: nounwind uwtable
define zeroext range(i8 0, 2) i8 @l_Array_anyMUnsafe_any___at___private_Lean_Elab_MutualInductive_0__Lean_Elab_Command_AccLevelState_push___spec__2(ptr noundef readonly captures(none) %0, ptr noundef readonly captures(none) %1, i64 noundef %2, i64 noundef %3) local_unnamed_addr #1 {
  %.not64 = icmp eq i64 %2, %3
  br i1 %.not64, label %lean_dec.exit._crit_edge, label %.lr.ph

.lr.ph:                                           ; preds = %4
  %5 = getelementptr inbounds nuw i8, ptr %1, i64 24
  %6 = getelementptr inbounds nuw i8, ptr %0, i64 8
  %7 = getelementptr inbounds nuw i8, ptr %0, i64 16
  br label %8

8:                                                ; preds = %.lr.ph, %lean_dec.exit37
  %.03065 = phi i64 [ %2, %.lr.ph ], [ %.333, %lean_dec.exit37 ]
  %9 = getelementptr inbounds nuw [0 x ptr], ptr %5, i64 0, i64 %.03065
  %10 = load ptr, ptr %9, align 8, !tbaa !12
  %11 = ptrtoint ptr %10 to i64
  %12 = and i64 %11, 1
  %.not.i47 = icmp eq i64 %12, 0
  br i1 %.not.i47, label %13, label %lean_array_uget.exit

13:                                               ; preds = %8
  %.val.i.i = load i32, ptr %10, align 4, !tbaa !8
  %14 = icmp sgt i32 %.val.i.i, 0
  br i1 %14, label %15, label %17, !prof !11

15:                                               ; preds = %13
  %16 = add nuw i32 %.val.i.i, 1
  store i32 %16, ptr %10, align 4, !tbaa !8
  br label %lean_array_uget.exit

17:                                               ; preds = %13
  %.not.i.i = icmp eq i32 %.val.i.i, 0
  br i1 %.not.i.i, label %lean_array_uget.exit, label %18

18:                                               ; preds = %17
  tail call void @lean_inc_ref_cold(ptr noundef nonnull %10) #5
  br label %lean_array_uget.exit

lean_array_uget.exit:                             ; preds = %8, %15, %17, %18
  %19 = load ptr, ptr %6, align 8, !tbaa !12
  %20 = load ptr, ptr %7, align 8, !tbaa !12
  %21 = getelementptr inbounds nuw i8, ptr %10, i64 8
  %22 = load ptr, ptr %21, align 8, !tbaa !12
  %23 = ptrtoint ptr %22 to i64
  %24 = and i64 %23, 1
  %.not60 = icmp eq i64 %24, 0
  br i1 %.not60, label %25, label %lean_inc.exit40

25:                                               ; preds = %lean_array_uget.exit
  %.val.i = load i32, ptr %22, align 4, !tbaa !8
  %26 = icmp sgt i32 %.val.i, 0
  br i1 %26, label %27, label %29, !prof !11

27:                                               ; preds = %25
  %28 = add nuw i32 %.val.i, 1
  store i32 %28, ptr %22, align 4, !tbaa !8
  br label %lean_inc.exit40

29:                                               ; preds = %25
  %.not.i48 = icmp eq i32 %.val.i, 0
  br i1 %.not.i48, label %lean_inc.exit40, label %30

30:                                               ; preds = %29
  tail call void @lean_inc_ref_cold(ptr noundef nonnull %22) #5
  br label %lean_inc.exit40

lean_inc.exit40:                                  ; preds = %30, %29, %27, %lean_array_uget.exit
  %31 = getelementptr inbounds nuw i8, ptr %10, i64 16
  %32 = load ptr, ptr %31, align 8, !tbaa !12
  %33 = ptrtoint ptr %32 to i64
  %34 = and i64 %33, 1
  %.not61 = icmp eq i64 %34, 0
  br i1 %.not61, label %35, label %lean_inc.exit

35:                                               ; preds = %lean_inc.exit40
  %.val.i49 = load i32, ptr %32, align 4, !tbaa !8
  %36 = icmp sgt i32 %.val.i49, 0
  br i1 %36, label %37, label %39, !prof !11

37:                                               ; preds = %35
  %38 = add nuw i32 %.val.i49, 1
  store i32 %38, ptr %32, align 4, !tbaa !8
  br label %lean_inc.exit

39:                                               ; preds = %35
  %.not.i50 = icmp eq i32 %.val.i49, 0
  br i1 %.not.i50, label %lean_inc.exit, label %40

40:                                               ; preds = %39
  tail call void @lean_inc_ref_cold(ptr noundef nonnull %32) #5
  br label %lean_inc.exit

lean_inc.exit:                                    ; preds = %40, %39, %37, %lean_inc.exit40
  br i1 %.not.i47, label %41, label %lean_dec.exit39

41:                                               ; preds = %lean_inc.exit
  %42 = load i32, ptr %10, align 4, !tbaa !8
  %43 = icmp sgt i32 %42, 1
  br i1 %43, label %44, label %46, !prof !11

44:                                               ; preds = %41
  %45 = add nsw i32 %42, -1
  store i32 %45, ptr %10, align 4, !tbaa !8
  br label %lean_dec.exit39

46:                                               ; preds = %41
  %.not.i = icmp eq i32 %42, 0
  br i1 %.not.i, label %lean_dec.exit39, label %47

47:                                               ; preds = %46
  tail call void @lean_dec_ref_cold(ptr noundef nonnull %10) #5
  br label %lean_dec.exit39

lean_dec.exit39:                                  ; preds = %47, %46, %44, %lean_inc.exit
  %48 = tail call zeroext i8 @lean_level_eq(ptr noundef %19, ptr noundef %22) #5
  br i1 %.not60, label %49, label %lean_dec.exit38

49:                                               ; preds = %lean_dec.exit39
  %50 = load i32, ptr %22, align 4, !tbaa !8
  %51 = icmp sgt i32 %50, 1
  br i1 %51, label %52, label %54, !prof !11

52:                                               ; preds = %49
  %53 = add nsw i32 %50, -1
  store i32 %53, ptr %22, align 4, !tbaa !8
  br label %lean_dec.exit38

54:                                               ; preds = %49
  %.not.i41 = icmp eq i32 %50, 0
  br i1 %.not.i41, label %lean_dec.exit38, label %55

55:                                               ; preds = %54
  tail call void @lean_dec_ref_cold(ptr noundef nonnull %22) #5
  br label %lean_dec.exit38

lean_dec.exit38:                                  ; preds = %55, %54, %52, %lean_dec.exit39
  %56 = icmp eq i8 %48, 0
  br i1 %56, label %57, label %65

57:                                               ; preds = %lean_dec.exit38
  br i1 %.not61, label %58, label %lean_dec.exit37

58:                                               ; preds = %57
  %59 = load i32, ptr %32, align 4, !tbaa !8
  %60 = icmp sgt i32 %59, 1
  br i1 %60, label %61, label %63, !prof !11

61:                                               ; preds = %58
  %62 = add nsw i32 %59, -1
  store i32 %62, ptr %32, align 4, !tbaa !8
  br label %lean_dec.exit37

63:                                               ; preds = %58
  %.not.i43 = icmp eq i32 %59, 0
  br i1 %.not.i43, label %lean_dec.exit37, label %64

64:                                               ; preds = %63
  tail call void @lean_dec_ref_cold(ptr noundef nonnull %32) #5
  br label %lean_dec.exit37

65:                                               ; preds = %lean_dec.exit38
  %66 = ptrtoint ptr %20 to i64
  %67 = and i64 %66, 1
  %.not63 = icmp eq i64 %67, 0
  br i1 %.not63, label %lean_nat_eq.exit, label %68, !prof !18

68:                                               ; preds = %65
  br i1 %.not61, label %lean_nat_eq.exit.thread53, label %lean_nat_eq.exit.thread, !prof !18

lean_nat_eq.exit.thread53:                        ; preds = %68
  %69 = tail call zeroext i1 @lean_nat_big_eq(ptr noundef %20, ptr noundef %32) #5
  %70 = zext i1 %69 to i8
  br label %75

lean_nat_eq.exit.thread:                          ; preds = %68
  %71 = icmp eq ptr %20, %32
  %72 = zext i1 %71 to i8
  br label %lean_dec.exit

lean_nat_eq.exit:                                 ; preds = %65
  %73 = tail call zeroext i1 @lean_nat_big_eq(ptr noundef %20, ptr noundef %32) #5
  %74 = zext i1 %73 to i8
  br i1 %.not61, label %75, label %lean_dec.exit

75:                                               ; preds = %lean_nat_eq.exit.thread53, %lean_nat_eq.exit
  %76 = phi i8 [ %70, %lean_nat_eq.exit.thread53 ], [ %74, %lean_nat_eq.exit ]
  %77 = load i32, ptr %32, align 4, !tbaa !8
  %78 = icmp sgt i32 %77, 1
  br i1 %78, label %79, label %81, !prof !11

79:                                               ; preds = %75
  %80 = add nsw i32 %77, -1
  store i32 %80, ptr %32, align 4, !tbaa !8
  br label %lean_dec.exit

81:                                               ; preds = %75
  %.not.i45 = icmp eq i32 %77, 0
  br i1 %.not.i45, label %lean_dec.exit, label %82

82:                                               ; preds = %81
  tail call void @lean_dec_ref_cold(ptr noundef nonnull %32) #5
  br label %lean_dec.exit

lean_dec.exit:                                    ; preds = %82, %81, %79, %lean_nat_eq.exit.thread, %lean_nat_eq.exit
  %83 = phi i8 [ %72, %lean_nat_eq.exit.thread ], [ %74, %lean_nat_eq.exit ], [ %76, %79 ], [ %76, %81 ], [ %76, %82 ]
  %84 = icmp eq i8 %83, 0
  br i1 %84, label %lean_dec.exit37, label %lean_dec.exit._crit_edge

lean_dec.exit37:                                  ; preds = %lean_dec.exit, %57, %61, %63, %64
  %.333 = add i64 %.03065, 1
  %.not = icmp eq i64 %.333, %3
  br i1 %.not, label %lean_dec.exit._crit_edge, label %8

lean_dec.exit._crit_edge:                         ; preds = %lean_dec.exit37, %lean_dec.exit, %4
  %.3.ph = phi i8 [ 0, %4 ], [ 1, %lean_dec.exit ], [ 0, %lean_dec.exit37 ]
  ret i8 %.3.ph
}